target datalayout = "e-m:e-p270:32:32-p271:32:32-p272:64:64-i64:64-i128:128-f80:128-n8:16:32:64-S128"
target triple = "x86_64-pc-linux-gnu"

%struct.AVChannelLayout = type { i32, i32, %union.anon.0, ptr }
%union.anon.0 = type { i64 }
%struct.AVCodecContext = type { ptr, i32, i32, ptr, i32, i32, ptr, ptr, ptr, i64, i32, i32, ptr, i32, %struct.AVRational, %struct.AVRational, %struct.AVRational, i32, i32, i32, i32, i32, %struct.AVRational, i32, i32, i32, i32, i32, i32, i32, i32, i32, i32, i32, ptr, ptr, i32, float, float, float, float, float, float, float, float, float, i32, i32, i32, i32, i32, i32, i32, i32, i32, i32, i32, i32, ptr, ptr, ptr, i32, i32, i32, i32, i32, i32, i32, i32, i32, i32, %struct.AVChannelLayout, i32, i32, i32, i32, i32, i32, i32, i32, ptr, i32, i32, i32, float, float, i32, i32, i32, i32, i32, ptr, i64, i64, float, float, i32, i32, ptr, ptr, i32, i32, i32, i32, i32, ptr, ptr, ptr, ptr, i32, i32, [8 x i64], i32, i32, i32, i32, i32, i32, i32, ptr, ptr, i32, i32, i32, i32, i32, i32, i32, i32, i32, i32, ptr, ptr, i32, i32, ptr, ptr, ptr, ptr, i32, i32, i64, i32, i32, i64, ptr, i64, ptr, i32, ptr, i32 }
%struct.AVRational = type { i32, i32 }
%struct.IMCContext = type { [2 x %struct.IMCChannel], [256 x float], [30 x float], %struct.GetBitContext, ptr, %struct.BswapDSPContext, ptr, ptr, ptr, [8 x i8], [256 x float], i32, [32 x i8], [32 x i8], [31 x float], [31 x float], ptr, [8 x i8] }
%struct.IMCChannel = type { [32 x float], [32 x float], [32 x float], [32 x float], [32 x float], [32 x float], [32 x float], [256 x float], [32 x i32], [32 x i32], [256 x i32], [32 x i32], [32 x i32], [32 x i32], [32 x i32], [32 x i32], [32 x i32], [256 x i32], [256 x i32], i32, [12 x i8], [128 x float] }
%struct.GetBitContext = type { ptr, ptr, i32, i32, i32 }
%struct.BswapDSPContext = type { ptr, ptr }

; Function Attrs: cold nounwind optsize uwtable
define internal void @flush(ptr noundef %0) #0 {
  %2 = alloca ptr, align 8
  %3 = alloca ptr, align 8
  store ptr %0, ptr %2, align 8, !tbaa !4
  call void @llvm.lifetime.start.p0(i64 8, ptr %3) #10
  %4 = load ptr, ptr %2, align 8, !tbaa !4
  %5 = getelementptr inbounds nuw %struct.AVCodecContext, ptr %4, i32 0, i32 6
  %6 = load ptr, ptr %5, align 8, !tbaa !9
  store ptr %6, ptr %3, align 8, !tbaa !29
  %7 = load ptr, ptr %3, align 8, !tbaa !29
  %8 = getelementptr inbounds nuw %struct.IMCContext, ptr %7, i32 0, i32 0
  %9 = getelementptr inbounds [2 x %struct.IMCChannel], ptr %8, i64 0, i64 1
  %10 = getelementptr inbounds nuw %struct.IMCChannel, ptr %9, i32 0, i32 19
  store i32 1, ptr %10, align 16, !tbaa !42
  %11 = load ptr, ptr %3, align 8, !tbaa !29
  %12 = getelementptr inbounds nuw %struct.IMCContext, ptr %11, i32 0, i32 0
  %13 = getelementptr inbounds [2 x %struct.IMCChannel], ptr %12, i64 0, i64 0
  %14 = getelementptr inbounds nuw %struct.IMCChannel, ptr %13, i32 0, i32 19
  store i32 1, ptr %14, align 16, !tbaa !42
  call void @llvm.lifetime.end.p0(i64 8, ptr %3) #10
  ret void
}