; Function Attrs: cold mustprogress nofree norecurse nosync nounwind optsize willreturn memory(write, argmem: readwrite, inaccessiblemem: none) uwtable
define internal void @flush(ptr noundef readonly captures(none) %0) #2 {
  %2 = getelementptr inbounds nuw i8, ptr %0, i64 32
  %3 = load ptr, ptr %2, align 8, !tbaa !4
  %4 = getelementptr inbounds nuw i8, ptr %3, i64 12560
  store i32 1, ptr %4, align 16, !tbaa !34
  %5 = getelementptr inbounds nuw i8, ptr %3, i64 6016
  store i32 1, ptr %5, align 16, !tbaa !34
  ret void
}